; ModuleID = 'source-C-CXX/23/93.c'
source_filename = "source-C-CXX/23/93.c"
target datalayout = "e-m:e-p270:32:32-p271:32:32-p272:64:64-i64:64-f80:128-n8:16:32:64-S128"
target triple = "x86_64-pc-linux-gnu"

@.str = private unnamed_addr constant [3 x i8] c"%s\00", align 1
@.str.1 = private unnamed_addr constant [6 x i8] c"%s\0A%s\00", align 1

; Function Attrs: nofree nounwind sspstrong uwtable
define dso_local void @main() local_unnamed_addr #0 {
  %1 = alloca [50 x [20 x i8]], align 16
  %2 = getelementptr inbounds [50 x [20 x i8]], [50 x [20 x i8]]* %1, i64 0, i64 0, i64 0
  call void @llvm.lifetime.start.p0i8(i64 1000, i8* nonnull %2) #4
  br label %3

3:                                                ; preds = %3, %0
  %4 = phi i64 [ %8, %3 ], [ 0, %0 ]
  %5 = getelementptr inbounds [50 x [20 x i8]], [50 x [20 x i8]]* %1, i64 0, i64 %4, i64 0
  %6 = call i32 (i8*, ...) @__isoc99_scanf(i8* getelementptr inbounds ([3 x i8], [3 x i8]* @.str, i64 0, i64 0), i8* nonnull %5)
  %7 = icmp eq i32 %6, 1
  %8 = add nuw i64 %4, 1
  br i1 %7, label %3, label %9, !llvm.loop !5

9:                                                ; preds = %3
  %10 = trunc i64 %4 to i32
  %11 = icmp eq i32 %10, 0
  br i1 %11, label %36, label %12

12:                                               ; preds = %9
  %13 = and i64 %4, 4294967295
  br label %14

14:                                               ; preds = %12, %14
  %15 = phi i64 [ 0, %12 ], [ %31, %14 ]
  %16 = phi i32 [ 0, %12 ], [ %25, %14 ]
  %17 = phi i32 [ 0, %12 ], [ %30, %14 ]
  %18 = getelementptr inbounds [50 x [20 x i8]], [50 x [20 x i8]]* %1, i64 0, i64 %15, i64 0
  %19 = call i64 @strlen(i8* noundef nonnull %18) #5
  %20 = sext i32 %16 to i64
  %21 = getelementptr inbounds [50 x [20 x i8]], [50 x [20 x i8]]* %1, i64 0, i64 %20, i64 0
  %22 = call i64 @strlen(i8* noundef nonnull %21) #5
  %23 = icmp ugt i64 %19, %22
  %24 = trunc i64 %15 to i32
  %25 = select i1 %23, i32 %24, i32 %16
  %26 = sext i32 %17 to i64
  %27 = getelementptr inbounds [50 x [20 x i8]], [50 x [20 x i8]]* %1, i64 0, i64 %26, i64 0
  %28 = call i64 @strlen(i8* noundef nonnull %27) #5
  %29 = icmp ult i64 %19, %28
  %30 = select i1 %29, i32 %24, i32 %17
  %31 = add nuw nsw i64 %15, 1
  %32 = icmp eq i64 %31, %13
  br i1 %32, label %33, label %14, !llvm.loop !7

33:                                               ; preds = %14
  %34 = sext i32 %25 to i64
  %35 = sext i32 %30 to i64
  br label %36

36:                                               ; preds = %33, %9
  %37 = phi i64 [ 0, %9 ], [ %35, %33 ]
  %38 = phi i64 [ 0, %9 ], [ %34, %33 ]
  %39 = getelementptr inbounds [50 x [20 x i8]], [50 x [20 x i8]]* %1, i64 0, i64 %38, i64 0
  %40 = getelementptr inbounds [50 x [20 x i8]], [50 x [20 x i8]]* %1, i64 0, i64 %37, i64 0
  %41 = call i32 (i8*, ...) @printf(i8* nonnull dereferenceable(1) getelementptr inbounds ([6 x i8], [6 x i8]* @.str.1, i64 0, i64 0), i8* nonnull %39, i8* nonnull %40)
  call void @llvm.lifetime.end.p0i8(i64 1000, i8* nonnull %2) #4
  ret void
}

; Function Attrs: argmemonly mustprogress nofree nosync nounwind willreturn
declare void @llvm.lifetime.start.p0i8(i64 immarg, i8* nocapture) #1

; Function Attrs: nofree nounwind
declare noundef i32 @__isoc99_scanf(i8* nocapture noundef readonly, ...) local_unnamed_addr #2

; Function Attrs: argmemonly mustprogress nofree nounwind readonly willreturn
declare i64 @strlen(i8* nocapture) local_unnamed_addr #3

; Function Attrs: nofree nounwind
declare noundef i32 @printf(i8* nocapture noundef readonly, ...) local_unnamed_addr #2

; Function Attrs: argmemonly mustprogress nofree nosync nounwind willreturn
declare void @llvm.lifetime.end.p0i8(i64 immarg, i8* nocapture) #1


!llvm.module.flags = !{!0, !1, !2, !3}
!llvm.ident = !{!4}

!0 = !{i32 1, !"wchar_size", i32 4}
!1 = !{i32 7, !"PIC Level", i32 2}
!2 = !{i32 7, !"PIE Level", i32 2}
!3 = !{i32 7, !"uwtable", i32 1}
!4 = !{!"clang version 13.0.0"}
!5 = distinct !{!5, !6}
!6 = !{!"llvm.loop.mustprogress"}
!7 = distinct !{!7, !6}
